target datalayout = "e-m:e-p270:32:32-p271:32:32-p272:64:64-i64:64-i128:128-f80:128-n8:16:32:64-S128"
target triple = "x86_64-pc-linux-gnu"

; Function Attrs: alwaysinline nounwind willreturn memory(none) uwtable
define internal zeroext i8 @av_clip_uint8_c(i32 noundef %0) #5 {
  %2 = alloca i8, align 1
  %3 = alloca i32, align 4
  store i32 %0, ptr %3, align 4, !tbaa !38
  %4 = load i32, ptr %3, align 4, !tbaa !38
  %5 = and i32 %4, -256
  %6 = icmp ne i32 %5, 0
  br i1 %6, label %7, label %12

7:                                                ; preds = %1
  %8 = load i32, ptr %3, align 4, !tbaa !38
  %9 = xor i32 %8, -1
  %10 = ashr i32 %9, 31
  %11 = trunc i32 %10 to i8
  store i8 %11, ptr %2, align 1
  br label %15

12:                                               ; preds = %1
  %13 = load i32, ptr %3, align 4, !tbaa !38
  %14 = trunc i32 %13 to i8
  store i8 %14, ptr %2, align 1
  br label %15

15:                                               ; preds = %12, %7
  %16 = load i8, ptr %2, align 1
  ret i8 %16
}

; Function Attrs: nounwind uwtable
define internal void @vc1_v_overlap_c(ptr noundef %0, i64 noundef %1) #1 {
  %3 = alloca ptr, align 8
  %4 = alloca i64, align 8
  %5 = alloca i32, align 4
  %6 = alloca i32, align 4
  %7 = alloca i32, align 4
  %8 = alloca i32, align 4
  %9 = alloca i32, align 4
  %10 = alloca i32, align 4
  %11 = alloca i32, align 4
  %12 = alloca i32, align 4
  store ptr %0, ptr %3, align 8, !tbaa !45
  store i64 %1, ptr %4, align 8, !tbaa !47
  call void @llvm.lifetime.start.p0(i64 4, ptr %5) #7
  call void @llvm.lifetime.start.p0(i64 4, ptr %6) #7
  call void @llvm.lifetime.start.p0(i64 4, ptr %7) #7
  call void @llvm.lifetime.start.p0(i64 4, ptr %8) #7
  call void @llvm.lifetime.start.p0(i64 4, ptr %9) #7
  call void @llvm.lifetime.start.p0(i64 4, ptr %10) #7
  call void @llvm.lifetime.start.p0(i64 4, ptr %11) #7
  call void @llvm.lifetime.start.p0(i64 4, ptr %12) #7
  store i32 1, ptr %12, align 4, !tbaa !38
  store i32 0, ptr %5, align 4, !tbaa !38
  br label %13

13:                                               ; preds = %91, %2
  %14 = load i32, ptr %5, align 4, !tbaa !38
  %15 = icmp slt i32 %14, 8
  br i1 %15, label %16, label %94

16:                                               ; preds = %13
  %17 = load ptr, ptr %3, align 8, !tbaa !45
  %18 = load i64, ptr %4, align 8, !tbaa !47
  %19 = mul nsw i64 -2, %18
  %20 = getelementptr inbounds i8, ptr %17, i64 %19
  %21 = load i8, ptr %20, align 1, !tbaa !50
  %22 = zext i8 %21 to i32
  store i32 %22, ptr %6, align 4, !tbaa !38
  %23 = load ptr, ptr %3, align 8, !tbaa !45
  %24 = load i64, ptr %4, align 8, !tbaa !47
  %25 = sub nsw i64 0, %24
  %26 = getelementptr inbounds i8, ptr %23, i64 %25
  %27 = load i8, ptr %26, align 1, !tbaa !50
  %28 = zext i8 %27 to i32
  store i32 %28, ptr %7, align 4, !tbaa !38
  %29 = load ptr, ptr %3, align 8, !tbaa !45
  %30 = getelementptr inbounds i8, ptr %29, i64 0
  %31 = load i8, ptr %30, align 1, !tbaa !50
  %32 = zext i8 %31 to i32
  store i32 %32, ptr %8, align 4, !tbaa !38
  %33 = load ptr, ptr %3, align 8, !tbaa !45
  %34 = load i64, ptr %4, align 8, !tbaa !47
  %35 = getelementptr inbounds i8, ptr %33, i64 %34
  %36 = load i8, ptr %35, align 1, !tbaa !50
  %37 = zext i8 %36 to i32
  store i32 %37, ptr %9, align 4, !tbaa !38
  %38 = load i32, ptr %6, align 4, !tbaa !38
  %39 = load i32, ptr %9, align 4, !tbaa !38
  %40 = sub nsw i32 %38, %39
  %41 = add nsw i32 %40, 3
  %42 = load i32, ptr %12, align 4, !tbaa !38
  %43 = add nsw i32 %41, %42
  %44 = ashr i32 %43, 3
  store i32 %44, ptr %10, align 4, !tbaa !38
  %45 = load i32, ptr %6, align 4, !tbaa !38
  %46 = load i32, ptr %9, align 4, !tbaa !38
  %47 = sub nsw i32 %45, %46
  %48 = load i32, ptr %7, align 4, !tbaa !38
  %49 = add nsw i32 %47, %48
  %50 = load i32, ptr %8, align 4, !tbaa !38
  %51 = sub nsw i32 %49, %50
  %52 = add nsw i32 %51, 4
  %53 = load i32, ptr %12, align 4, !tbaa !38
  %54 = sub nsw i32 %52, %53
  %55 = ashr i32 %54, 3
  store i32 %55, ptr %11, align 4, !tbaa !38
  %56 = load i32, ptr %6, align 4, !tbaa !38
  %57 = load i32, ptr %10, align 4, !tbaa !38
  %58 = sub nsw i32 %56, %57
  %59 = trunc i32 %58 to i8
  %60 = load ptr, ptr %3, align 8, !tbaa !45
  %61 = load i64, ptr %4, align 8, !tbaa !47
  %62 = mul nsw i64 -2, %61
  %63 = getelementptr inbounds i8, ptr %60, i64 %62
  store i8 %59, ptr %63, align 1, !tbaa !50
  %64 = load i32, ptr %7, align 4, !tbaa !38
  %65 = load i32, ptr %11, align 4, !tbaa !38
  %66 = sub nsw i32 %64, %65
  %67 = call zeroext i8 @av_clip_uint8_c(i32 noundef %66) #8
  %68 = load ptr, ptr %3, align 8, !tbaa !45
  %69 = load i64, ptr %4, align 8, !tbaa !47
  %70 = sub nsw i64 0, %69
  %71 = getelementptr inbounds i8, ptr %68, i64 %70
  store i8 %67, ptr %71, align 1, !tbaa !50
  %72 = load i32, ptr %8, align 4, !tbaa !38
  %73 = load i32, ptr %11, align 4, !tbaa !38
  %74 = add nsw i32 %72, %73
  %75 = call zeroext i8 @av_clip_uint8_c(i32 noundef %74) #8
  %76 = load ptr, ptr %3, align 8, !tbaa !45
  %77 = getelementptr inbounds i8, ptr %76, i64 0
  store i8 %75, ptr %77, align 1, !tbaa !50
  %78 = load i32, ptr %9, align 4, !tbaa !38
  %79 = load i32, ptr %10, align 4, !tbaa !38
  %80 = add nsw i32 %78, %79
  %81 = trunc i32 %80 to i8
  %82 = load ptr, ptr %3, align 8, !tbaa !45
  %83 = load i64, ptr %4, align 8, !tbaa !47
  %84 = getelementptr inbounds i8, ptr %82, i64 %83
  store i8 %81, ptr %84, align 1, !tbaa !50
  %85 = load ptr, ptr %3, align 8, !tbaa !45
  %86 = getelementptr inbounds nuw i8, ptr %85, i32 1
  store ptr %86, ptr %3, align 8, !tbaa !45
  %87 = load i32, ptr %12, align 4, !tbaa !38
  %88 = icmp ne i32 %87, 0
  %89 = xor i1 %88, true
  %90 = zext i1 %89 to i32
  store i32 %90, ptr %12, align 4, !tbaa !38
  br label %91

91:                                               ; preds = %16
  %92 = load i32, ptr %5, align 4, !tbaa !38
  %93 = add nsw i32 %92, 1
  store i32 %93, ptr %5, align 4, !tbaa !38
  br label %13, !llvm.loop !61

94:                                               ; preds = %13
  call void @llvm.lifetime.end.p0(i64 4, ptr %12) #7
  call void @llvm.lifetime.end.p0(i64 4, ptr %11) #7
  call void @llvm.lifetime.end.p0(i64 4, ptr %10) #7
  call void @llvm.lifetime.end.p0(i64 4, ptr %9) #7
  call void @llvm.lifetime.end.p0(i64 4, ptr %8) #7
  call void @llvm.lifetime.end.p0(i64 4, ptr %7) #7
  call void @llvm.lifetime.end.p0(i64 4, ptr %6) #7
  call void @llvm.lifetime.end.p0(i64 4, ptr %5) #7
  ret void
}