; Function Attrs: nofree norecurse nosync nounwind memory(argmem: readwrite) uwtable
define internal void @vc1_v_overlap_c(ptr noundef captures(none) %0, i64 noundef %1) #1 {
  %3 = mul nsw i64 %1, -2
  %4 = sub nsw i64 0, %1
  br label %5

5:                                                ; preds = %2, %5
  %.041 = phi i32 [ 1, %2 ], [ %36, %5 ]
  %.03340 = phi ptr [ %0, %2 ], [ %35, %5 ]
  %.03439 = phi i32 [ 0, %2 ], [ %37, %5 ]
  %6 = getelementptr inbounds i8, ptr %.03340, i64 %3
  %7 = load i8, ptr %6, align 1, !tbaa !40
  %8 = zext i8 %7 to i32
  %9 = getelementptr inbounds i8, ptr %.03340, i64 %4
  %10 = load i8, ptr %9, align 1, !tbaa !40
  %11 = zext i8 %10 to i32
  %12 = load i8, ptr %.03340, align 1, !tbaa !40
  %13 = zext i8 %12 to i32
  %14 = getelementptr inbounds i8, ptr %.03340, i64 %1
  %15 = load i8, ptr %14, align 1, !tbaa !40
  %16 = zext i8 %15 to i32
  %17 = sub nsw i32 %8, %16
  %18 = add nuw nsw i32 %.041, 3
  %19 = add nsw i32 %18, %17
  %20 = lshr i32 %19, 3
  %21 = add nuw nsw i32 %11, 4
  %22 = add nuw nsw i32 %.041, %13
  %23 = sub nsw i32 %21, %22
  %24 = add nsw i32 %23, %17
  %25 = ashr i32 %24, 3
  %26 = trunc i32 %20 to i8
  %27 = sub i8 %7, %26
  store i8 %27, ptr %6, align 1, !tbaa !40
  %28 = sub nsw i32 %11, %25
  %.not.i = icmp ult i32 %28, 256
  %isnotneg.i = icmp sgt i32 %28, -1
  %29 = sext i1 %isnotneg.i to i8
  %30 = trunc nuw i32 %28 to i8
  %.0.i = select i1 %.not.i, i8 %30, i8 %29
  store i8 %.0.i, ptr %9, align 1, !tbaa !40
  %31 = add nsw i32 %25, %13
  %.not.i35 = icmp ult i32 %31, 256
  %isnotneg.i36 = icmp sgt i32 %31, -1
  %32 = sext i1 %isnotneg.i36 to i8
  %33 = trunc nuw i32 %31 to i8
  %.0.i37 = select i1 %.not.i35, i8 %33, i8 %32
  store i8 %.0.i37, ptr %.03340, align 1, !tbaa !40
  %34 = add i8 %15, %26
  store i8 %34, ptr %14, align 1, !tbaa !40
  %35 = getelementptr inbounds nuw i8, ptr %.03340, i64 1
  %36 = xor i32 %.041, 1
  %37 = add nuw nsw i32 %.03439, 1
  %exitcond.not = icmp eq i32 %37, 8
  br i1 %exitcond.not, label %38, label %5, !llvm.loop !51

38:                                               ; preds = %5
  ret void
}